target datalayout = "e-m:e-p270:32:32-p271:32:32-p272:64:64-i64:64-i128:128-f80:128-n8:16:32:64-S128"
target triple = "x86_64-pc-linux-gnu"

%struct.AVFilterContext = type { ptr, ptr, ptr, ptr, ptr, i32, ptr, ptr, i32, ptr, ptr, i32, i32, ptr, ptr, ptr, ptr, i32, ptr, i32, i32 }
%struct.VarBlurContext = type { ptr, %struct.FFFrameSync, i32, i32, i32, i32, [4 x i32], [4 x i32], [4 x ptr], [4 x i32], i32, ptr, ptr }
%struct.FFFrameSync = type { ptr, ptr, i32, %struct.AVRational, i64, ptr, ptr, i32, i32, i8, i8, ptr, i32, i32, i32, i32 }
%struct.AVRational = type { i32, i32 }
%struct.AVChannelLayout = type { i32, i32, %union.anon.1, ptr }
%union.anon.1 = type { i64 }
%struct.ThreadData = type { ptr, ptr, ptr }
%struct.AVFrame = type { [8 x ptr], [8 x i32], ptr, i32, i32, i32, i32, i32, %struct.AVRational, i64, i64, %struct.AVRational, i32, ptr, i32, i32, [8 x ptr], ptr, i32, ptr, i32, i32, i32, i32, i32, i32, i32, i64, ptr, i32, ptr, ptr, i64, i64, i64, i64, ptr, %struct.AVChannelLayout, i64 }

; Function Attrs: nounwind uwtable
define internal i32 @blur_planes(ptr noundef %0, ptr noundef %1, i32 noundef %2, i32 noundef %3) #0 {
  %5 = alloca ptr, align 8
  %6 = alloca ptr, align 8
  %7 = alloca i32, align 4
  %8 = alloca i32, align 4
  %9 = alloca ptr, align 8
  %10 = alloca ptr, align 8
  %11 = alloca ptr, align 8
  %12 = alloca ptr, align 8
  %13 = alloca ptr, align 8
  %14 = alloca i32, align 4
  %15 = alloca i32, align 4
  %16 = alloca i32, align 4
  %17 = alloca i32, align 4
  %18 = alloca i32, align 4
  %19 = alloca i32, align 4
  %20 = alloca i32, align 4
  %21 = alloca i32, align 4
  %22 = alloca ptr, align 8
  %23 = alloca i32, align 4
  %24 = alloca ptr, align 8
  %25 = alloca i32, align 4
  %26 = alloca ptr, align 8
  %27 = alloca ptr, align 8
  store ptr %0, ptr %5, align 8, !tbaa !4
  store ptr %1, ptr %6, align 8, !tbaa !108
  store i32 %2, ptr %7, align 4, !tbaa !24
  store i32 %3, ptr %8, align 4, !tbaa !24
  call void @llvm.lifetime.start.p0(i64 8, ptr %9) #10
  %28 = load ptr, ptr %5, align 8, !tbaa !4
  %29 = getelementptr inbounds nuw %struct.AVFilterContext, ptr %28, i32 0, i32 9
  %30 = load ptr, ptr %29, align 8, !tbaa !9
  store ptr %30, ptr %9, align 8, !tbaa !22
  call void @llvm.lifetime.start.p0(i64 8, ptr %10) #10
  %31 = load ptr, ptr %6, align 8, !tbaa !108
  store ptr %31, ptr %10, align 8, !tbaa !109
  call void @llvm.lifetime.start.p0(i64 8, ptr %11) #10
  %32 = load ptr, ptr %10, align 8, !tbaa !109
  %33 = getelementptr inbounds nuw %struct.ThreadData, ptr %32, i32 0, i32 2
  %34 = load ptr, ptr %33, align 8, !tbaa !107
  store ptr %34, ptr %11, align 8, !tbaa !99
  call void @llvm.lifetime.start.p0(i64 8, ptr %12) #10
  %35 = load ptr, ptr %10, align 8, !tbaa !109
  %36 = getelementptr inbounds nuw %struct.ThreadData, ptr %35, i32 0, i32 1
  %37 = load ptr, ptr %36, align 8, !tbaa !106
  store ptr %37, ptr %12, align 8, !tbaa !99
  call void @llvm.lifetime.start.p0(i64 8, ptr %13) #10
  %38 = load ptr, ptr %10, align 8, !tbaa !109
  %39 = getelementptr inbounds nuw %struct.ThreadData, ptr %38, i32 0, i32 0
  %40 = load ptr, ptr %39, align 8, !tbaa !104
  store ptr %40, ptr %13, align 8, !tbaa !99
  call void @llvm.lifetime.start.p0(i64 4, ptr %14) #10
  store i32 0, ptr %14, align 4, !tbaa !24
  br label %41

41:                                               ; preds = %176, %4
  %42 = load i32, ptr %14, align 4, !tbaa !24
  %43 = load ptr, ptr %9, align 8, !tbaa !22
  %44 = getelementptr inbounds nuw %struct.VarBlurContext, ptr %43, i32 0, i32 10
  %45 = load i32, ptr %44, align 8, !tbaa !61
  %46 = icmp slt i32 %42, %45
  br i1 %46, label %48, label %47

47:                                               ; preds = %41
  store i32 2, ptr %15, align 4
  call void @llvm.lifetime.end.p0(i64 4, ptr %14) #10
  br label %179

48:                                               ; preds = %41
  call void @llvm.lifetime.start.p0(i64 4, ptr %16) #10
  %49 = load ptr, ptr %9, align 8, !tbaa !22
  %50 = getelementptr inbounds nuw %struct.VarBlurContext, ptr %49, i32 0, i32 7
  %51 = load i32, ptr %14, align 4, !tbaa !24
  %52 = sext i32 %51 to i64
  %53 = getelementptr inbounds [4 x i32], ptr %50, i64 0, i64 %52
  %54 = load i32, ptr %53, align 4, !tbaa !24
  store i32 %54, ptr %16, align 4, !tbaa !24
  call void @llvm.lifetime.start.p0(i64 4, ptr %17) #10
  %55 = load i32, ptr %16, align 4, !tbaa !24
  %56 = load i32, ptr %7, align 4, !tbaa !24
  %57 = mul nsw i32 %55, %56
  %58 = load i32, ptr %8, align 4, !tbaa !24
  %59 = sdiv i32 %57, %58
  store i32 %59, ptr %17, align 4, !tbaa !24
  call void @llvm.lifetime.start.p0(i64 4, ptr %18) #10
  %60 = load i32, ptr %16, align 4, !tbaa !24
  %61 = load i32, ptr %7, align 4, !tbaa !24
  %62 = add nsw i32 %61, 1
  %63 = mul nsw i32 %60, %62
  %64 = load i32, ptr %8, align 4, !tbaa !24
  %65 = sdiv i32 %63, %64
  store i32 %65, ptr %18, align 4, !tbaa !24
  call void @llvm.lifetime.start.p0(i64 4, ptr %19) #10
  %66 = load ptr, ptr %9, align 8, !tbaa !22
  %67 = getelementptr inbounds nuw %struct.VarBlurContext, ptr %66, i32 0, i32 6
  %68 = load i32, ptr %14, align 4, !tbaa !24
  %69 = sext i32 %68 to i64
  %70 = getelementptr inbounds [4 x i32], ptr %67, i64 0, i64 %69
  %71 = load i32, ptr %70, align 4, !tbaa !24
  store i32 %71, ptr %19, align 4, !tbaa !24
  call void @llvm.lifetime.start.p0(i64 4, ptr %20) #10
  %72 = load ptr, ptr %13, align 8, !tbaa !99
  %73 = getelementptr inbounds nuw %struct.AVFrame, ptr %72, i32 0, i32 1
  %74 = load i32, ptr %14, align 4, !tbaa !24
  %75 = sext i32 %74 to i64
  %76 = getelementptr inbounds [8 x i32], ptr %73, i64 0, i64 %75
  %77 = load i32, ptr %76, align 4, !tbaa !24
  store i32 %77, ptr %20, align 4, !tbaa !24
  call void @llvm.lifetime.start.p0(i64 4, ptr %21) #10
  %78 = load ptr, ptr %12, align 8, !tbaa !99
  %79 = getelementptr inbounds nuw %struct.AVFrame, ptr %78, i32 0, i32 1
  %80 = load i32, ptr %14, align 4, !tbaa !24
  %81 = sext i32 %80 to i64
  %82 = getelementptr inbounds [8 x i32], ptr %79, i64 0, i64 %81
  %83 = load i32, ptr %82, align 4, !tbaa !24
  store i32 %83, ptr %21, align 4, !tbaa !24
  call void @llvm.lifetime.start.p0(i64 8, ptr %22) #10
  %84 = load ptr, ptr %11, align 8, !tbaa !99
  %85 = getelementptr inbounds nuw %struct.AVFrame, ptr %84, i32 0, i32 0
  %86 = load i32, ptr %14, align 4, !tbaa !24
  %87 = sext i32 %86 to i64
  %88 = getelementptr inbounds [8 x ptr], ptr %85, i64 0, i64 %87
  %89 = load ptr, ptr %88, align 8, !tbaa !62
  store ptr %89, ptr %22, align 8, !tbaa !62
  call void @llvm.lifetime.start.p0(i64 4, ptr %23) #10
  %90 = load ptr, ptr %11, align 8, !tbaa !99
  %91 = getelementptr inbounds nuw %struct.AVFrame, ptr %90, i32 0, i32 1
  %92 = load i32, ptr %14, align 4, !tbaa !24
  %93 = sext i32 %92 to i64
  %94 = getelementptr inbounds [8 x i32], ptr %91, i64 0, i64 %93
  %95 = load i32, ptr %94, align 4, !tbaa !24
  store i32 %95, ptr %23, align 4, !tbaa !24
  call void @llvm.lifetime.start.p0(i64 8, ptr %24) #10
  %96 = load ptr, ptr %9, align 8, !tbaa !22
  %97 = getelementptr inbounds nuw %struct.VarBlurContext, ptr %96, i32 0, i32 8
  %98 = load i32, ptr %14, align 4, !tbaa !24
  %99 = sext i32 %98 to i64
  %100 = getelementptr inbounds [4 x ptr], ptr %97, i64 0, i64 %99
  %101 = load ptr, ptr %100, align 8, !tbaa !62
  store ptr %101, ptr %24, align 8, !tbaa !62
  call void @llvm.lifetime.start.p0(i64 4, ptr %25) #10
  %102 = load ptr, ptr %9, align 8, !tbaa !22
  %103 = getelementptr inbounds nuw %struct.VarBlurContext, ptr %102, i32 0, i32 9
  %104 = load i32, ptr %14, align 4, !tbaa !24
  %105 = sext i32 %104 to i64
  %106 = getelementptr inbounds [4 x i32], ptr %103, i64 0, i64 %105
  %107 = load i32, ptr %106, align 4, !tbaa !24
  store i32 %107, ptr %25, align 4, !tbaa !24
  call void @llvm.lifetime.start.p0(i64 8, ptr %26) #10
  %108 = load ptr, ptr %13, align 8, !tbaa !99
  %109 = getelementptr inbounds nuw %struct.AVFrame, ptr %108, i32 0, i32 0
  %110 = load i32, ptr %14, align 4, !tbaa !24
  %111 = sext i32 %110 to i64
  %112 = getelementptr inbounds [8 x ptr], ptr %109, i64 0, i64 %111
  %113 = load ptr, ptr %112, align 8, !tbaa !62
  store ptr %113, ptr %26, align 8, !tbaa !62
  call void @llvm.lifetime.start.p0(i64 8, ptr %27) #10
  %114 = load ptr, ptr %12, align 8, !tbaa !99
  %115 = getelementptr inbounds nuw %struct.AVFrame, ptr %114, i32 0, i32 0
  %116 = load i32, ptr %14, align 4, !tbaa !24
  %117 = sext i32 %116 to i64
  %118 = getelementptr inbounds [8 x ptr], ptr %115, i64 0, i64 %117
  %119 = load ptr, ptr %118, align 8, !tbaa !62
  store ptr %119, ptr %27, align 8, !tbaa !62
  %120 = load ptr, ptr %9, align 8, !tbaa !22
  %121 = getelementptr inbounds nuw %struct.VarBlurContext, ptr %120, i32 0, i32 4
  %122 = load i32, ptr %121, align 8, !tbaa !102
  %123 = load i32, ptr %14, align 4, !tbaa !24
  %124 = shl i32 1, %123
  %125 = and i32 %122, %124
  %126 = icmp ne i32 %125, 0
  br i1 %126, label %157, label %127

127:                                              ; preds = %48
  %128 = load ptr, ptr %12, align 8, !tbaa !99
  %129 = load ptr, ptr %13, align 8, !tbaa !99
  %130 = icmp ne ptr %128, %129
  br i1 %130, label %131, label %156

131:                                              ; preds = %127
  %132 = load ptr, ptr %27, align 8, !tbaa !62
  %133 = load i32, ptr %17, align 4, !tbaa !24
  %134 = load i32, ptr %21, align 4, !tbaa !24
  %135 = mul nsw i32 %133, %134
  %136 = sext i32 %135 to i64
  %137 = getelementptr inbounds i8, ptr %132, i64 %136
  %138 = load i32, ptr %21, align 4, !tbaa !24
  %139 = load ptr, ptr %26, align 8, !tbaa !62
  %140 = load i32, ptr %17, align 4, !tbaa !24
  %141 = load i32, ptr %20, align 4, !tbaa !24
  %142 = mul nsw i32 %140, %141
  %143 = sext i32 %142 to i64
  %144 = getelementptr inbounds i8, ptr %139, i64 %143
  %145 = load i32, ptr %20, align 4, !tbaa !24
  %146 = load i32, ptr %19, align 4, !tbaa !24
  %147 = load ptr, ptr %9, align 8, !tbaa !22
  %148 = getelementptr inbounds nuw %struct.VarBlurContext, ptr %147, i32 0, i32 5
  %149 = load i32, ptr %148, align 4, !tbaa !51
  %150 = add nsw i32 %149, 7
  %151 = sdiv i32 %150, 8
  %152 = mul nsw i32 %146, %151
  %153 = load i32, ptr %18, align 4, !tbaa !24
  %154 = load i32, ptr %17, align 4, !tbaa !24
  %155 = sub nsw i32 %153, %154
  call void @av_image_copy_plane(ptr noundef %137, i32 noundef %138, ptr noundef %144, i32 noundef %145, i32 noundef %152, i32 noundef %155)
  br label %156

156:                                              ; preds = %131, %127
  store i32 4, ptr %15, align 4
  br label %173

157:                                              ; preds = %48
  %158 = load ptr, ptr %9, align 8, !tbaa !22
  %159 = getelementptr inbounds nuw %struct.VarBlurContext, ptr %158, i32 0, i32 12
  %160 = load ptr, ptr %159, align 8, !tbaa !56
  %161 = load ptr, ptr %5, align 8, !tbaa !4
  %162 = load ptr, ptr %27, align 8, !tbaa !62
  %163 = load i32, ptr %21, align 4, !tbaa !24
  %164 = load ptr, ptr %22, align 8, !tbaa !62
  %165 = load i32, ptr %23, align 4, !tbaa !24
  %166 = load i32, ptr %19, align 4, !tbaa !24
  %167 = load i32, ptr %16, align 4, !tbaa !24
  %168 = load ptr, ptr %24, align 8, !tbaa !62
  %169 = load i32, ptr %25, align 4, !tbaa !24
  %170 = load i32, ptr %17, align 4, !tbaa !24
  %171 = load i32, ptr %18, align 4, !tbaa !24
  %172 = call i32 %160(ptr noundef %161, ptr noundef %162, i32 noundef %163, ptr noundef %164, i32 noundef %165, i32 noundef %166, i32 noundef %167, ptr noundef %168, i32 noundef %169, i32 noundef %170, i32 noundef %171)
  store i32 0, ptr %15, align 4
  br label %173

173:                                              ; preds = %157, %156
  call void @llvm.lifetime.end.p0(i64 8, ptr %27) #10
  call void @llvm.lifetime.end.p0(i64 8, ptr %26) #10
  call void @llvm.lifetime.end.p0(i64 4, ptr %25) #10
  call void @llvm.lifetime.end.p0(i64 8, ptr %24) #10
  call void @llvm.lifetime.end.p0(i64 4, ptr %23) #10
  call void @llvm.lifetime.end.p0(i64 8, ptr %22) #10
  call void @llvm.lifetime.end.p0(i64 4, ptr %21) #10
  call void @llvm.lifetime.end.p0(i64 4, ptr %20) #10
  call void @llvm.lifetime.end.p0(i64 4, ptr %19) #10
  call void @llvm.lifetime.end.p0(i64 4, ptr %18) #10
  call void @llvm.lifetime.end.p0(i64 4, ptr %17) #10
  call void @llvm.lifetime.end.p0(i64 4, ptr %16) #10
  %174 = load i32, ptr %15, align 4
  switch i32 %174, label %180 [
    i32 0, label %175
    i32 4, label %176
  ]

175:                                              ; preds = %173
  br label %176

176:                                              ; preds = %175, %173
  %177 = load i32, ptr %14, align 4, !tbaa !24
  %178 = add nsw i32 %177, 1
  store i32 %178, ptr %14, align 4, !tbaa !24
  br label %41, !llvm.loop !111

179:                                              ; preds = %47
  store i32 1, ptr %15, align 4
  call void @llvm.lifetime.end.p0(i64 8, ptr %13) #10
  call void @llvm.lifetime.end.p0(i64 8, ptr %12) #10
  call void @llvm.lifetime.end.p0(i64 8, ptr %11) #10
  call void @llvm.lifetime.end.p0(i64 8, ptr %10) #10
  call void @llvm.lifetime.end.p0(i64 8, ptr %9) #10
  ret i32 0

180:                                              ; preds = %173
  unreachable
}