; Function Attrs: nounwind uwtable
define internal noundef i32 @blur_planes(ptr noundef %0, ptr noundef readonly captures(none) %1, i32 noundef %2, i32 noundef %3) #0 {
  %5 = getelementptr inbounds nuw i8, ptr %0, i64 72
  %6 = load ptr, ptr %5, align 8, !tbaa !4
  %7 = getelementptr inbounds nuw i8, ptr %1, i64 16
  %8 = load ptr, ptr %7, align 8, !tbaa !86
  %9 = getelementptr inbounds nuw i8, ptr %1, i64 8
  %10 = load ptr, ptr %9, align 8, !tbaa !85
  %11 = load ptr, ptr %1, align 8, !tbaa !83
  %12 = getelementptr inbounds nuw i8, ptr %6, i64 200
  %13 = load i32, ptr %12, align 8, !tbaa !53
  %14 = icmp sgt i32 %13, 0
  br i1 %14, label %.lr.ph, label %._crit_edge

.lr.ph:                                           ; preds = %4
  %15 = getelementptr inbounds nuw i8, ptr %6, i64 136
  %16 = add nsw i32 %2, 1
  %17 = getelementptr inbounds nuw i8, ptr %6, i64 120
  %18 = getelementptr inbounds nuw i8, ptr %11, i64 64
  %19 = getelementptr inbounds nuw i8, ptr %10, i64 64
  %20 = getelementptr inbounds nuw i8, ptr %6, i64 112
  %21 = getelementptr inbounds nuw i8, ptr %6, i64 184
  %22 = getelementptr inbounds nuw i8, ptr %6, i64 152
  %23 = getelementptr inbounds nuw i8, ptr %8, i64 64
  %24 = getelementptr inbounds nuw i8, ptr %6, i64 216
  %.not61 = icmp eq ptr %10, %11
  %25 = getelementptr inbounds nuw i8, ptr %6, i64 116
  %.not61.fr = freeze i1 %.not61
  br i1 %.not61.fr, label %.lr.ph.split.us, label %.lr.ph.split

.lr.ph.split.us:                                  ; preds = %.lr.ph, %54
  %26 = phi i32 [ %55, %54 ], [ %13, %.lr.ph ]
  %indvars.iv65 = phi i64 [ %indvars.iv.next66, %54 ], [ 0, %.lr.ph ]
  %27 = load i32, ptr %20, align 8, !tbaa !87
  %28 = trunc nuw nsw i64 %indvars.iv65 to i32
  %29 = shl nuw i32 1, %28
  %30 = and i32 %27, %29
  %.not.us = icmp eq i32 %30, 0
  br i1 %.not.us, label %54, label %31

31:                                               ; preds = %.lr.ph.split.us
  %32 = getelementptr inbounds nuw [8 x ptr], ptr %10, i64 0, i64 %indvars.iv65
  %33 = load ptr, ptr %32, align 8, !tbaa !55
  %34 = getelementptr inbounds nuw [8 x i32], ptr %19, i64 0, i64 %indvars.iv65
  %35 = load i32, ptr %34, align 4, !tbaa !51
  %36 = getelementptr inbounds nuw [4 x i32], ptr %17, i64 0, i64 %indvars.iv65
  %37 = load i32, ptr %36, align 4, !tbaa !51
  %38 = getelementptr inbounds nuw [4 x i32], ptr %15, i64 0, i64 %indvars.iv65
  %39 = load i32, ptr %38, align 4, !tbaa !51
  %40 = mul nsw i32 %39, %16
  %41 = sdiv i32 %40, %3
  %42 = mul nsw i32 %39, %2
  %43 = sdiv i32 %42, %3
  %44 = getelementptr inbounds nuw [4 x i32], ptr %21, i64 0, i64 %indvars.iv65
  %45 = load i32, ptr %44, align 4, !tbaa !51
  %46 = getelementptr inbounds nuw [4 x ptr], ptr %22, i64 0, i64 %indvars.iv65
  %47 = load ptr, ptr %46, align 8, !tbaa !55
  %48 = getelementptr inbounds nuw [8 x i32], ptr %23, i64 0, i64 %indvars.iv65
  %49 = load i32, ptr %48, align 4, !tbaa !51
  %50 = getelementptr inbounds nuw [8 x ptr], ptr %8, i64 0, i64 %indvars.iv65
  %51 = load ptr, ptr %50, align 8, !tbaa !55
  %52 = load ptr, ptr %24, align 8, !tbaa !47
  %53 = tail call i32 %52(ptr noundef %0, ptr noundef %33, i32 noundef %35, ptr noundef %51, i32 noundef %49, i32 noundef %37, i32 noundef %39, ptr noundef %47, i32 noundef %45, i32 noundef %43, i32 noundef %41) #10
  %.pre = load i32, ptr %12, align 8, !tbaa !53
  br label %54

54:                                               ; preds = %.lr.ph.split.us, %31
  %55 = phi i32 [ %26, %.lr.ph.split.us ], [ %.pre, %31 ]
  %indvars.iv.next66 = add nuw nsw i64 %indvars.iv65, 1
  %56 = sext i32 %55 to i64
  %57 = icmp slt i64 %indvars.iv.next66, %56
  br i1 %57, label %.lr.ph.split.us, label %._crit_edge, !llvm.loop !89

._crit_edge:                                      ; preds = %101, %54, %4
  ret i32 0

.lr.ph.split:                                     ; preds = %.lr.ph, %101
  %indvars.iv = phi i64 [ %indvars.iv.next, %101 ], [ 0, %.lr.ph ]
  %58 = getelementptr inbounds nuw [4 x i32], ptr %15, i64 0, i64 %indvars.iv
  %59 = load i32, ptr %58, align 4, !tbaa !51
  %60 = mul nsw i32 %59, %2
  %61 = sdiv i32 %60, %3
  %62 = mul nsw i32 %59, %16
  %63 = sdiv i32 %62, %3
  %64 = getelementptr inbounds nuw [4 x i32], ptr %17, i64 0, i64 %indvars.iv
  %65 = load i32, ptr %64, align 4, !tbaa !51
  %66 = getelementptr inbounds nuw [8 x i32], ptr %19, i64 0, i64 %indvars.iv
  %67 = load i32, ptr %66, align 4, !tbaa !51
  %68 = getelementptr inbounds nuw [8 x ptr], ptr %10, i64 0, i64 %indvars.iv
  %69 = load ptr, ptr %68, align 8, !tbaa !55
  %70 = load i32, ptr %20, align 8, !tbaa !87
  %71 = trunc nuw nsw i64 %indvars.iv to i32
  %72 = shl nuw i32 1, %71
  %73 = and i32 %70, %72
  %.not = icmp eq i32 %73, 0
  br i1 %.not, label %74, label %90

74:                                               ; preds = %.lr.ph.split
  %75 = getelementptr inbounds nuw [8 x ptr], ptr %11, i64 0, i64 %indvars.iv
  %76 = load ptr, ptr %75, align 8, !tbaa !55
  %77 = getelementptr inbounds nuw [8 x i32], ptr %18, i64 0, i64 %indvars.iv
  %78 = load i32, ptr %77, align 4, !tbaa !51
  %79 = mul nsw i32 %67, %61
  %80 = sext i32 %79 to i64
  %81 = getelementptr inbounds i8, ptr %69, i64 %80
  %82 = mul nsw i32 %78, %61
  %83 = sext i32 %82 to i64
  %84 = getelementptr inbounds i8, ptr %76, i64 %83
  %85 = load i32, ptr %25, align 4, !tbaa !42
  %86 = add nsw i32 %85, 7
  %87 = sdiv i32 %86, 8
  %88 = mul nsw i32 %87, %65
  %89 = sub nsw i32 %63, %61
  tail call void @av_image_copy_plane(ptr noundef %81, i32 noundef %67, ptr noundef %84, i32 noundef %78, i32 noundef %88, i32 noundef %89) #10
  br label %101

90:                                               ; preds = %.lr.ph.split
  %91 = getelementptr inbounds nuw [4 x i32], ptr %21, i64 0, i64 %indvars.iv
  %92 = load i32, ptr %91, align 4, !tbaa !51
  %93 = getelementptr inbounds nuw [4 x ptr], ptr %22, i64 0, i64 %indvars.iv
  %94 = load ptr, ptr %93, align 8, !tbaa !55
  %95 = getelementptr inbounds nuw [8 x i32], ptr %23, i64 0, i64 %indvars.iv
  %96 = load i32, ptr %95, align 4, !tbaa !51
  %97 = getelementptr inbounds nuw [8 x ptr], ptr %8, i64 0, i64 %indvars.iv
  %98 = load ptr, ptr %97, align 8, !tbaa !55
  %99 = load ptr, ptr %24, align 8, !tbaa !47
  %100 = tail call i32 %99(ptr noundef %0, ptr noundef %69, i32 noundef %67, ptr noundef %98, i32 noundef %96, i32 noundef %65, i32 noundef %59, ptr noundef %94, i32 noundef %92, i32 noundef %61, i32 noundef %63) #10
  br label %101

101:                                              ; preds = %74, %90
  %indvars.iv.next = add nuw nsw i64 %indvars.iv, 1
  %102 = load i32, ptr %12, align 8, !tbaa !53
  %103 = sext i32 %102 to i64
  %104 = icmp slt i64 %indvars.iv.next, %103
  br i1 %104, label %.lr.ph.split, label %._crit_edge, !llvm.loop !89
}